target datalayout = "e-m:e-p270:32:32-p271:32:32-p272:64:64-i64:64-i128:128-f80:128-n8:16:32:64-S128"
target triple = "x86_64-unknown-linux-gnu"

%"class.absl::lts_20230802::log_internal::LogMessageFatal" = type { %"class.absl::lts_20230802::log_internal::LogMessage" }
%"class.absl::lts_20230802::log_internal::LogMessage" = type { %"class.absl::lts_20230802::base_internal::ErrnoSaver", %"class.std::unique_ptr" }
%"class.absl::lts_20230802::base_internal::ErrnoSaver" = type { i32 }
%"class.std::unique_ptr" = type { %"struct.std::__uniq_ptr_data" }
%"struct.std::__uniq_ptr_data" = type { %"class.std::__uniq_ptr_impl" }
%"class.std::__uniq_ptr_impl" = type { %"class.std::tuple" }
%"class.std::tuple" = type { %"struct.std::_Tuple_impl" }
%"struct.std::_Tuple_impl" = type { %"struct.std::_Head_base.1" }
%"struct.std::_Head_base.1" = type { ptr }
%"class.std::basic_string_view" = type { i64, ptr }
%"class.google::protobuf::io::ArrayOutputStream" = type { %"class.google::protobuf::io::ZeroCopyOutputStream", ptr, i32, i32, i32, i32 }
%"class.google::protobuf::io::ZeroCopyOutputStream" = type { ptr }

@.str.1 = private unnamed_addr constant [148 x i8] c"generated/home/dtcxzyw/WorkSpace/Projects/compilers/llvm-opt-benchmark/bench/protobuf/protobuf/src/google/protobuf/io/zero_copy_stream_impl_lite.cc\00", align 1
@.str.3 = private unnamed_addr constant [29 x i8] c"count <= last_returned_size_\00", align 1
@.str.4 = private unnamed_addr constant [11 x i8] c"count >= 0\00", align 1
@.str.5 = private unnamed_addr constant [58 x i8] c"BackUp() can not exceed the size of the last Next() call.\00", align 1

; Function Attrs: mustprogress uwtable
define linkonce_odr hidden noundef ptr @_ZN4absl12lts_2023080212log_internal12Check_GEImplIiiEEPNSt7__cxx1112basic_stringIcSt11char_traitsIcESaIcEEERKT_RKT0_PKc(ptr noundef nonnull align 4 dereferenceable(4) %v1, ptr noundef nonnull align 4 dereferenceable(4) %v2, ptr noundef %exprtext) #5 comdat {
entry:
  %v1.addr = alloca ptr, align 8
  %v2.addr = alloca ptr, align 8
  %exprtext.addr = alloca ptr, align 8
  store ptr %v1, ptr %v1.addr, align 8
  store ptr %v2, ptr %v2.addr, align 8
  store ptr %exprtext, ptr %exprtext.addr, align 8
  %0 = load ptr, ptr %v1.addr, align 8
  %1 = load i32, ptr %0, align 4
  %2 = load ptr, ptr %v2.addr, align 8
  %3 = load i32, ptr %2, align 4
  %cmp = icmp sge i32 %1, %3
  br i1 %cmp, label %cond.true, label %cond.false

cond.true:                                        ; preds = %entry
  br label %cond.end

cond.false:                                       ; preds = %entry
  %4 = load ptr, ptr %v1.addr, align 8
  %5 = load i32, ptr %4, align 4
  %conv = sext i32 %5 to i64
  %6 = load ptr, ptr %v2.addr, align 8
  %7 = load i32, ptr %6, align 4
  %conv1 = sext i32 %7 to i64
  %8 = load ptr, ptr %exprtext.addr, align 8
  %call = call noundef nonnull ptr @_ZN4absl12lts_2023080212log_internal17MakeCheckOpStringIllEEPNSt7__cxx1112basic_stringIcSt11char_traitsIcESaIcEEET_T0_PKc(i64 noundef %conv, i64 noundef %conv1, ptr noundef %8)
  br label %cond.end

cond.end:                                         ; preds = %cond.false, %cond.true
  %cond = phi ptr [ null, %cond.true ], [ %call, %cond.false ]
  ret ptr %cond
}

; Function Attrs: mustprogress uwtable
define linkonce_odr hidden noundef ptr @_ZN4absl12lts_2023080212log_internal12Check_LEImplIiiEEPNSt7__cxx1112basic_stringIcSt11char_traitsIcESaIcEEERKT_RKT0_PKc(ptr noundef nonnull align 4 dereferenceable(4) %v1, ptr noundef nonnull align 4 dereferenceable(4) %v2, ptr noundef %exprtext) #5 comdat {
entry:
  %v1.addr = alloca ptr, align 8
  %v2.addr = alloca ptr, align 8
  %exprtext.addr = alloca ptr, align 8
  store ptr %v1, ptr %v1.addr, align 8
  store ptr %v2, ptr %v2.addr, align 8
  store ptr %exprtext, ptr %exprtext.addr, align 8
  %0 = load ptr, ptr %v1.addr, align 8
  %1 = load i32, ptr %0, align 4
  %2 = load ptr, ptr %v2.addr, align 8
  %3 = load i32, ptr %2, align 4
  %cmp = icmp sle i32 %1, %3
  br i1 %cmp, label %cond.true, label %cond.false

cond.true:                                        ; preds = %entry
  br label %cond.end

cond.false:                                       ; preds = %entry
  %4 = load ptr, ptr %v1.addr, align 8
  %5 = load i32, ptr %4, align 4
  %conv = sext i32 %5 to i64
  %6 = load ptr, ptr %v2.addr, align 8
  %7 = load i32, ptr %6, align 4
  %conv1 = sext i32 %7 to i64
  %8 = load ptr, ptr %exprtext.addr, align 8
  %call = call noundef nonnull ptr @_ZN4absl12lts_2023080212log_internal17MakeCheckOpStringIllEEPNSt7__cxx1112basic_stringIcSt11char_traitsIcESaIcEEET_T0_PKc(i64 noundef %conv, i64 noundef %conv1, ptr noundef %8)
  br label %cond.end

cond.end:                                         ; preds = %cond.false, %cond.true
  %cond = phi ptr [ null, %cond.true ], [ %call, %cond.false ]
  ret ptr %cond
}

; Function Attrs: mustprogress uwtable
define linkonce_odr hidden noundef ptr @_ZN4absl12lts_2023080212log_internal12Check_GEImplB5cxx11EiiPKc(i32 noundef %v1, i32 noundef %v2, ptr noundef %exprtext) #5 comdat {
entry:
  %v1.addr = alloca i32, align 4
  %v2.addr = alloca i32, align 4
  %exprtext.addr = alloca ptr, align 8
  store i32 %v1, ptr %v1.addr, align 4
  store i32 %v2, ptr %v2.addr, align 4
  store ptr %exprtext, ptr %exprtext.addr, align 8
  %0 = load ptr, ptr %exprtext.addr, align 8
  %call = call noundef ptr @_ZN4absl12lts_2023080212log_internal12Check_GEImplIiiEEPNSt7__cxx1112basic_stringIcSt11char_traitsIcESaIcEEERKT_RKT0_PKc(ptr noundef nonnull align 4 dereferenceable(4) %v1.addr, ptr noundef nonnull align 4 dereferenceable(4) %v2.addr, ptr noundef %0)
  ret ptr %call
}

; Function Attrs: mustprogress nounwind uwtable
define linkonce_odr hidden noundef nonnull align 8 dereferenceable(16) ptr @_ZN4absl12lts_2023080212log_internal10LogMessage14InternalStreamEv(ptr noundef nonnull align 8 dereferenceable(16) %this) #4 comdat align 2 {
entry:
  %this.addr = alloca ptr, align 8
  store ptr %this, ptr %this.addr, align 8
  %this1 = load ptr, ptr %this.addr, align 8
  ret ptr %this1
}

; Function Attrs: mustprogress uwtable
define linkonce_odr hidden noundef ptr @_ZN4absl12lts_2023080212log_internal12Check_LEImplB5cxx11EiiPKc(i32 noundef %v1, i32 noundef %v2, ptr noundef %exprtext) #5 comdat {
entry:
  %v1.addr = alloca i32, align 4
  %v2.addr = alloca i32, align 4
  %exprtext.addr = alloca ptr, align 8
  store i32 %v1, ptr %v1.addr, align 4
  store i32 %v2, ptr %v2.addr, align 4
  store ptr %exprtext, ptr %exprtext.addr, align 8
  %0 = load ptr, ptr %exprtext.addr, align 8
  %call = call noundef ptr @_ZN4absl12lts_2023080212log_internal12Check_LEImplIiiEEPNSt7__cxx1112basic_stringIcSt11char_traitsIcESaIcEEERKT_RKT0_PKc(ptr noundef nonnull align 4 dereferenceable(4) %v1.addr, ptr noundef nonnull align 4 dereferenceable(4) %v2.addr, ptr noundef %0)
  ret ptr %call
}

; Function Attrs: mustprogress nounwind uwtable
define linkonce_odr hidden noundef i32 @_ZN4absl12lts_2023080212log_internal21GetReferenceableValueEi(i32 noundef %t) #4 comdat {
entry:
  %t.addr = alloca i32, align 4
  store i32 %t, ptr %t.addr, align 4
  %0 = load i32, ptr %t.addr, align 4
  ret i32 %0
}

; Function Attrs: mustprogress uwtable
define void @_ZN6google8protobuf2io17ArrayOutputStream6BackUpEi(ptr noundef nonnull align 8 dereferenceable(32) %this, i32 noundef %count) unnamed_addr #5 align 2 personality ptr @__gxx_personality_v0 {
entry:
  %this.addr = alloca ptr, align 8
  %count.addr = alloca i32, align 4
  %absl_log_internal_check_op_result = alloca ptr, align 8
  %ref.tmp = alloca %"class.absl::lts_20230802::log_internal::LogMessageFatal", align 8
  %agg.tmp = alloca %"class.std::basic_string_view", align 8
  %exn.slot = alloca ptr, align 8
  %ehselector.slot = alloca i32, align 4
  %absl_log_internal_check_op_result9 = alloca ptr, align 8
  %ref.tmp15 = alloca %"class.absl::lts_20230802::log_internal::LogMessageFatal", align 8
  %agg.tmp16 = alloca %"class.std::basic_string_view", align 8
  store ptr %this, ptr %this.addr, align 8
  store i32 %count, ptr %count.addr, align 4
  %this1 = load ptr, ptr %this.addr, align 8
  br label %while.cond

while.cond:                                       ; preds = %entry
  %0 = load i32, ptr %count.addr, align 4
  %call = call noundef i32 @_ZN4absl12lts_2023080212log_internal21GetReferenceableValueEi(i32 noundef %0)
  %last_returned_size_ = getelementptr inbounds %"class.google::protobuf::io::ArrayOutputStream", ptr %this1, i32 0, i32 5
  %1 = load i32, ptr %last_returned_size_, align 4
  %call2 = call noundef i32 @_ZN4absl12lts_2023080212log_internal21GetReferenceableValueEi(i32 noundef %1)
  %call3 = call noundef ptr @_ZN4absl12lts_2023080212log_internal12Check_LEImplB5cxx11EiiPKc(i32 noundef %call, i32 noundef %call2, ptr noundef @.str.3)
  store ptr %call3, ptr %absl_log_internal_check_op_result, align 8
  %2 = load ptr, ptr %absl_log_internal_check_op_result, align 8
  %tobool = icmp ne ptr %2, null
  br i1 %tobool, label %while.body, label %while.end

while.body:                                       ; preds = %while.cond
  %3 = load ptr, ptr %absl_log_internal_check_op_result, align 8
  %call4 = call { i64, ptr } @_ZNKSt7__cxx1112basic_stringIcSt11char_traitsIcESaIcEEcvSt17basic_string_viewIcS2_EEv(ptr noundef nonnull align 8 dereferenceable(32) %3) #3
  %4 = getelementptr inbounds { i64, ptr }, ptr %agg.tmp, i32 0, i32 0
  %5 = extractvalue { i64, ptr } %call4, 0
  store i64 %5, ptr %4, align 8
  %6 = getelementptr inbounds { i64, ptr }, ptr %agg.tmp, i32 0, i32 1
  %7 = extractvalue { i64, ptr } %call4, 1
  store ptr %7, ptr %6, align 8
  %8 = getelementptr inbounds { i64, ptr }, ptr %agg.tmp, i32 0, i32 0
  %9 = load i64, ptr %8, align 8
  %10 = getelementptr inbounds { i64, ptr }, ptr %agg.tmp, i32 0, i32 1
  %11 = load ptr, ptr %10, align 8
  call void @_ZN4absl12lts_2023080212log_internal15LogMessageFatalC1EPKciSt17basic_string_viewIcSt11char_traitsIcEE(ptr noundef nonnull align 8 dereferenceable(16) %ref.tmp, ptr noundef @.str.1, i32 noundef 109, i64 %9, ptr %11) #15
  %call5 = invoke noundef nonnull align 8 dereferenceable(16) ptr @_ZN4absl12lts_2023080212log_internal10LogMessage14InternalStreamEv(ptr noundef nonnull align 8 dereferenceable(16) %ref.tmp)
          to label %invoke.cont unwind label %lpad

invoke.cont:                                      ; preds = %while.body
  %call7 = invoke noundef nonnull align 8 dereferenceable(16) ptr @_ZN4absl12lts_2023080212log_internal10LogMessagelsILi58EEERS2_RAT__Kc(ptr noundef nonnull align 8 dereferenceable(16) %call5, ptr noundef nonnull align 1 dereferenceable(58) @.str.5)
          to label %invoke.cont6 unwind label %lpad

invoke.cont6:                                     ; preds = %invoke.cont
  call void @_ZN4absl12lts_2023080212log_internal15LogMessageFatalD1Ev(ptr noundef nonnull align 8 dereferenceable(16) %ref.tmp) #16
  unreachable

lpad:                                             ; preds = %invoke.cont, %while.body
  %12 = landingpad { ptr, i32 }
          cleanup
  %13 = extractvalue { ptr, i32 } %12, 0
  store ptr %13, ptr %exn.slot, align 8
  %14 = extractvalue { ptr, i32 } %12, 1
  store i32 %14, ptr %ehselector.slot, align 4
  call void @_ZN4absl12lts_2023080212log_internal15LogMessageFatalD1Ev(ptr noundef nonnull align 8 dereferenceable(16) %ref.tmp) #16
  unreachable

15:                                               ; No predecessors!
  br label %eh.resume

while.end:                                        ; preds = %while.cond
  br label %while.cond8

while.cond8:                                      ; preds = %while.end
  %16 = load i32, ptr %count.addr, align 4
  %call10 = call noundef i32 @_ZN4absl12lts_2023080212log_internal21GetReferenceableValueEi(i32 noundef %16)
  %call11 = call noundef i32 @_ZN4absl12lts_2023080212log_internal21GetReferenceableValueEi(i32 noundef 0)
  %call12 = call noundef ptr @_ZN4absl12lts_2023080212log_internal12Check_GEImplB5cxx11EiiPKc(i32 noundef %call10, i32 noundef %call11, ptr noundef @.str.4)
  store ptr %call12, ptr %absl_log_internal_check_op_result9, align 8
  %17 = load ptr, ptr %absl_log_internal_check_op_result9, align 8
  %tobool13 = icmp ne ptr %17, null
  br i1 %tobool13, label %while.body14, label %while.end21

while.body14:                                     ; preds = %while.cond8
  %18 = load ptr, ptr %absl_log_internal_check_op_result9, align 8
  %call17 = call { i64, ptr } @_ZNKSt7__cxx1112basic_stringIcSt11char_traitsIcESaIcEEcvSt17basic_string_viewIcS2_EEv(ptr noundef nonnull align 8 dereferenceable(32) %18) #3
  %19 = getelementptr inbounds { i64, ptr }, ptr %agg.tmp16, i32 0, i32 0
  %20 = extractvalue { i64, ptr } %call17, 0
  store i64 %20, ptr %19, align 8
  %21 = getelementptr inbounds { i64, ptr }, ptr %agg.tmp16, i32 0, i32 1
  %22 = extractvalue { i64, ptr } %call17, 1
  store ptr %22, ptr %21, align 8
  %23 = getelementptr inbounds { i64, ptr }, ptr %agg.tmp16, i32 0, i32 0
  %24 = load i64, ptr %23, align 8
  %25 = getelementptr inbounds { i64, ptr }, ptr %agg.tmp16, i32 0, i32 1
  %26 = load ptr, ptr %25, align 8
  call void @_ZN4absl12lts_2023080212log_internal15LogMessageFatalC1EPKciSt17basic_string_viewIcSt11char_traitsIcEE(ptr noundef nonnull align 8 dereferenceable(16) %ref.tmp15, ptr noundef @.str.1, i32 noundef 111, i64 %24, ptr %26) #15
  %call20 = invoke noundef nonnull align 8 dereferenceable(16) ptr @_ZN4absl12lts_2023080212log_internal10LogMessage14InternalStreamEv(ptr noundef nonnull align 8 dereferenceable(16) %ref.tmp15)
          to label %invoke.cont19 unwind label %lpad18

invoke.cont19:                                    ; preds = %while.body14
  call void @_ZN4absl12lts_2023080212log_internal15LogMessageFatalD1Ev(ptr noundef nonnull align 8 dereferenceable(16) %ref.tmp15) #16
  unreachable

lpad18:                                           ; preds = %while.body14
  %27 = landingpad { ptr, i32 }
          cleanup
  %28 = extractvalue { ptr, i32 } %27, 0
  store ptr %28, ptr %exn.slot, align 8
  %29 = extractvalue { ptr, i32 } %27, 1
  store i32 %29, ptr %ehselector.slot, align 4
  call void @_ZN4absl12lts_2023080212log_internal15LogMessageFatalD1Ev(ptr noundef nonnull align 8 dereferenceable(16) %ref.tmp15) #16
  unreachable

30:                                               ; No predecessors!
  br label %eh.resume

while.end21:                                      ; preds = %while.cond8
  %31 = load i32, ptr %count.addr, align 4
  %position_ = getelementptr inbounds %"class.google::protobuf::io::ArrayOutputStream", ptr %this1, i32 0, i32 4
  %32 = load i32, ptr %position_, align 8
  %sub = sub nsw i32 %32, %31
  store i32 %sub, ptr %position_, align 8
  %33 = load i32, ptr %count.addr, align 4
  %last_returned_size_22 = getelementptr inbounds %"class.google::protobuf::io::ArrayOutputStream", ptr %this1, i32 0, i32 5
  %34 = load i32, ptr %last_returned_size_22, align 4
  %sub23 = sub nsw i32 %34, %33
  store i32 %sub23, ptr %last_returned_size_22, align 4
  ret void

eh.resume:                                        ; preds = %30, %15
  %exn = load ptr, ptr %exn.slot, align 8
  %sel = load i32, ptr %ehselector.slot, align 4
  %lpad.val = insertvalue { ptr, i32 } poison, ptr %exn, 0
  %lpad.val24 = insertvalue { ptr, i32 } %lpad.val, i32 %sel, 1
  resume { ptr, i32 } %lpad.val24
}